; Function Attrs: mustprogress uwtable
define void @_ZN4LIEF2PE19ResourceStringTableC2EsNSt7__cxx1112basic_stringIDsSt11char_traitsIDsESaIDsEEE(ptr noundef nonnull align 8 dereferenceable(42) %0, i16 noundef signext %1, ptr noundef %2) unnamed_addr #0 align 2 personality ptr @__gxx_personality_v0 {
  tail call void @_ZN4LIEF6ObjectC2Ev(ptr noundef nonnull align 8 dereferenceable(8) %0)
  store ptr getelementptr inbounds ({ [7 x ptr] }, ptr @_ZTVN4LIEF2PE19ResourceStringTableE, i64 0, i32 0, i64 2), ptr %0, align 8
  %4 = getelementptr inbounds i8, ptr %0, i64 8
  %5 = getelementptr inbounds i8, ptr %0, i64 24
  store ptr %5, ptr %4, align 8
  %6 = load ptr, ptr %2, align 8
  %7 = getelementptr inbounds i8, ptr %2, i64 16
  %8 = icmp eq ptr %6, %7
  br i1 %8, label %9, label %_ZNKSt7__cxx1112basic_stringIDsSt11char_traitsIDsESaIDsEE11_M_is_localEv.exit.i

9:                                                ; preds = %3
  %10 = getelementptr inbounds i8, ptr %2, i64 8
  %11 = load i64, ptr %10, align 8
  %12 = icmp ult i64 %11, 8
  tail call void @llvm.assume(i1 %12)
  %13 = shl nuw nsw i64 %11, 1
  %14 = add nuw nsw i64 %13, 2
  tail call void @llvm.memcpy.p0.p0.i64(ptr noundef nonnull align 8 dereferenceable(1) %5, ptr noundef nonnull align 8 dereferenceable(1) %6, i64 %14, i1 false)
  br label %_ZNSt7__cxx1112basic_stringIDsSt11char_traitsIDsESaIDsEEC2EOS4_.exit

_ZNKSt7__cxx1112basic_stringIDsSt11char_traitsIDsESaIDsEE11_M_is_localEv.exit.i: ; preds = %3
  store ptr %6, ptr %4, align 8
  %15 = load i64, ptr %7, align 8
  store i64 %15, ptr %5, align 8
  br label %_ZNSt7__cxx1112basic_stringIDsSt11char_traitsIDsESaIDsEEC2EOS4_.exit

_ZNSt7__cxx1112basic_stringIDsSt11char_traitsIDsESaIDsEEC2EOS4_.exit: ; preds = %9, %_ZNKSt7__cxx1112basic_stringIDsSt11char_traitsIDsESaIDsEE11_M_is_localEv.exit.i
  %16 = getelementptr inbounds i8, ptr %2, i64 8
  %17 = load i64, ptr %16, align 8
  %18 = getelementptr inbounds i8, ptr %0, i64 16
  store i64 %17, ptr %18, align 8
  store ptr %7, ptr %2, align 8
  store i64 0, ptr %16, align 8
  store i16 0, ptr %7, align 2
  %19 = getelementptr inbounds i8, ptr %0, i64 40
  store i16 %1, ptr %19, align 8
  ret void
}